target datalayout = "e-m:e-p270:32:32-p271:32:32-p272:64:64-i64:64-i128:128-f80:128-n8:16:32:64-S128"
target triple = "x86_64-pc-linux-gnu"

; Function Attrs: mustprogress uwtable
define dso_local void @_ZN11DebugDrawGL5beginE21duDebugDrawPrimitivesf(ptr noundef nonnull align 8 dereferenceable(8) %0, i32 noundef %1, float noundef %2) unnamed_addr #0 align 2 {
  %4 = alloca ptr, align 8
  %5 = alloca i32, align 4
  %6 = alloca float, align 4
  store ptr %0, ptr %4, align 8
  store i32 %1, ptr %5, align 4
  store float %2, ptr %6, align 4
  %7 = load i32, ptr %5, align 4
  switch i32 %7, label %14 [
    i32 0, label %8
    i32 1, label %10
    i32 2, label %12
    i32 3, label %13
  ]

8:                                                ; preds = %3
  %9 = load float, ptr %6, align 4
  call void @glPointSize(float noundef %9)
  call void @glBegin(i32 noundef 0)
  br label %14

10:                                               ; preds = %3
  %11 = load float, ptr %6, align 4
  call void @glLineWidth(float noundef %11)
  call void @glBegin(i32 noundef 1)
  br label %14

12:                                               ; preds = %3
  call void @glBegin(i32 noundef 4)
  br label %14

13:                                               ; preds = %3
  call void @glBegin(i32 noundef 7)
  br label %14

14:                                               ; preds = %13, %12, %10, %8, %3
  ret void
}