; Function Attrs: mustprogress uwtable
define dso_local void @_ZN11DebugDrawGL5beginE21duDebugDrawPrimitivesf(ptr nocapture nonnull readnone align 8 %0, i32 noundef %1, float noundef %2) unnamed_addr #4 align 2 {
  switch i32 %1, label %7 [
    i32 0, label %4
    i32 1, label %5
    i32 2, label %.sink.split
    i32 3, label %6
  ]

4:                                                ; preds = %3
  tail call void @glPointSize(float noundef %2)
  br label %.sink.split

5:                                                ; preds = %3
  tail call void @glLineWidth(float noundef %2)
  br label %.sink.split

6:                                                ; preds = %3
  br label %.sink.split

.sink.split:                                      ; preds = %3, %4, %5, %6
  %.sink = phi i32 [ 7, %6 ], [ 1, %5 ], [ 0, %4 ], [ 4, %3 ]
  tail call void @glBegin(i32 noundef %.sink)
  br label %7

7:                                                ; preds = %.sink.split, %3
  ret void
}